

Microchip Technology PIC LITE Macro Assembler V1.35 build -356382666 
                                                                                               Fri Oct 23 00:05:47 2015

Microchip Technology Omniscient Code Generator v1.35 (Free mode) build 201507080246
     1                           	processor	16F1788
     2                           	opt	pw 120
     3                           	opt	lm
     4                           	psect	idataBANK0,global,class=CODE,delta=2
     5                           	psect	stringtext,global,class=STRCODE,delta=2
     6                           	psect	cinit,global,class=CODE,merge=1,delta=2
     7                           	psect	bssCOMMON,global,class=COMMON,space=1,delta=1
     8                           	psect	bssBANK0,global,class=BANK0,space=1,delta=1
     9                           	psect	dataBANK0,global,class=BANK0,space=1,delta=1
    10                           	psect	cstackCOMMON,global,class=COMMON,space=1,delta=1
    11                           	psect	maintext,global,class=CODE,merge=1,split=1,delta=2
    12                           	psect	text1,local,class=CODE,merge=1,delta=2
    13                           	psect	text2,local,class=CODE,merge=1,delta=2
    14                           	psect	text3,local,class=CODE,merge=1,delta=2
    15                           	dabs	1,0x7E,2
    16  0000                     	;# 
    17  0001                     	;# 
    18  0002                     	;# 
    19  0003                     	;# 
    20  0004                     	;# 
    21  0005                     	;# 
    22  0006                     	;# 
    23  0007                     	;# 
    24  0008                     	;# 
    25  0009                     	;# 
    26  000A                     	;# 
    27  000B                     	;# 
    28  000C                     	;# 
    29  000D                     	;# 
    30  000E                     	;# 
    31  0010                     	;# 
    32  0011                     	;# 
    33  0012                     	;# 
    34  0013                     	;# 
    35  0014                     	;# 
    36  0015                     	;# 
    37  0016                     	;# 
    38  0016                     	;# 
    39  0017                     	;# 
    40  0018                     	;# 
    41  0019                     	;# 
    42  001A                     	;# 
    43  001B                     	;# 
    44  001C                     	;# 
    45  008C                     	;# 
    46  008D                     	;# 
    47  008E                     	;# 
    48  0090                     	;# 
    49  0091                     	;# 
    50  0092                     	;# 
    51  0093                     	;# 
    52  0094                     	;# 
    53  0095                     	;# 
    54  0096                     	;# 
    55  0097                     	;# 
    56  0098                     	;# 
    57  0099                     	;# 
    58  009A                     	;# 
    59  009B                     	;# 
    60  009B                     	;# 
    61  009C                     	;# 
    62  009D                     	;# 
    63  009E                     	;# 
    64  009F                     	;# 
    65  010C                     	;# 
    66  010D                     	;# 
    67  010E                     	;# 
    68  0111                     	;# 
    69  0112                     	;# 
    70  0113                     	;# 
    71  0114                     	;# 
    72  0115                     	;# 
    73  0116                     	;# 
    74  0117                     	;# 
    75  0118                     	;# 
    76  0119                     	;# 
    77  011A                     	;# 
    78  011B                     	;# 
    79  011C                     	;# 
    80  011D                     	;# 
    81  011D                     	;# 
    82  011D                     	;# 
    83  011E                     	;# 
    84  011F                     	;# 
    85  018C                     	;# 
    86  018D                     	;# 
    87  018E                     	;# 
    88  0191                     	;# 
    89  0191                     	;# 
    90  0192                     	;# 
    91  0193                     	;# 
    92  0193                     	;# 
    93  0193                     	;# 
    94  0194                     	;# 
    95  0195                     	;# 
    96  0196                     	;# 
    97  0197                     	;# 
    98  0199                     	;# 
    99  0199                     	;# 
   100  0199                     	;# 
   101  019A                     	;# 
   102  019A                     	;# 
   103  019A                     	;# 
   104  019B                     	;# 
   105  019B                     	;# 
   106  019B                     	;# 
   107  019B                     	;# 
   108  019B                     	;# 
   109  019C                     	;# 
   110  019C                     	;# 
   111  019C                     	;# 
   112  019D                     	;# 
   113  019D                     	;# 
   114  019D                     	;# 
   115  019E                     	;# 
   116  019E                     	;# 
   117  019E                     	;# 
   118  019F                     	;# 
   119  019F                     	;# 
   120  019F                     	;# 
   121  019F                     	;# 
   122  019F                     	;# 
   123  020C                     	;# 
   124  020D                     	;# 
   125  020E                     	;# 
   126  0210                     	;# 
   127  0211                     	;# 
   128  0211                     	;# 
   129  0212                     	;# 
   130  0212                     	;# 
   131  0213                     	;# 
   132  0213                     	;# 
   133  0214                     	;# 
   134  0214                     	;# 
   135  0215                     	;# 
   136  0215                     	;# 
   137  0215                     	;# 
   138  0215                     	;# 
   139  0216                     	;# 
   140  0216                     	;# 
   141  0217                     	;# 
   142  0217                     	;# 
   143  028C                     	;# 
   144  028D                     	;# 
   145  028E                     	;# 
   146  0291                     	;# 
   147  0291                     	;# 
   148  0292                     	;# 
   149  0293                     	;# 
   150  0298                     	;# 
   151  0298                     	;# 
   152  0299                     	;# 
   153  029A                     	;# 
   154  030C                     	;# 
   155  030D                     	;# 
   156  030E                     	;# 
   157  0311                     	;# 
   158  0311                     	;# 
   159  0312                     	;# 
   160  0313                     	;# 
   161  038C                     	;# 
   162  038D                     	;# 
   163  038E                     	;# 
   164  0390                     	;# 
   165  0391                     	;# 
   166  0392                     	;# 
   167  0393                     	;# 
   168  0394                     	;# 
   169  0395                     	;# 
   170  0396                     	;# 
   171  0397                     	;# 
   172  0398                     	;# 
   173  0399                     	;# 
   174  039D                     	;# 
   175  039E                     	;# 
   176  039F                     	;# 
   177  0511                     	;# 
   178  0513                     	;# 
   179  051A                     	;# 
   180  0591                     	;# 
   181  0592                     	;# 
   182  0592                     	;# 
   183  0593                     	;# 
   184  0594                     	;# 
   185  0594                     	;# 
   186  0595                     	;# 
   187  0596                     	;# 
   188  0596                     	;# 
   189  0E91                     	;# 
   190  0E92                     	;# 
   191  0E93                     	;# 
   192  0E94                     	;# 
   193  0E95                     	;# 
   194  0E96                     	;# 
   195  0E97                     	;# 
   196  0E98                     	;# 
   197  0E99                     	;# 
   198  0E9A                     	;# 
   199  0E9B                     	;# 
   200  0E9C                     	;# 
   201  0E9D                     	;# 
   202  0E9E                     	;# 
   203  0E9F                     	;# 
   204  0EA0                     	;# 
   205  0EA1                     	;# 
   206  0EA1                     	;# 
   207  0EA2                     	;# 
   208  0EA3                     	;# 
   209  0EA3                     	;# 
   210  0EA4                     	;# 
   211  0EA5                     	;# 
   212  0EA5                     	;# 
   213  0EA6                     	;# 
   214  0EA7                     	;# 
   215  0EA7                     	;# 
   216  0EA8                     	;# 
   217  0EA9                     	;# 
   218  0EAA                     	;# 
   219  0EAB                     	;# 
   220  0EAC                     	;# 
   221  0EAD                     	;# 
   222  0EAE                     	;# 
   223  0EAF                     	;# 
   224  0EB1                     	;# 
   225  0EB2                     	;# 
   226  0EB3                     	;# 
   227  0EB4                     	;# 
   228  0EB5                     	;# 
   229  0EB6                     	;# 
   230  0EB7                     	;# 
   231  0EB8                     	;# 
   232  0EB9                     	;# 
   233  0EBA                     	;# 
   234  0EBB                     	;# 
   235  0EBC                     	;# 
   236  0EBD                     	;# 
   237  0EBE                     	;# 
   238  0EBF                     	;# 
   239  0EC0                     	;# 
   240  0EC1                     	;# 
   241  0EC1                     	;# 
   242  0EC2                     	;# 
   243  0EC3                     	;# 
   244  0EC3                     	;# 
   245  0EC4                     	;# 
   246  0EC5                     	;# 
   247  0EC5                     	;# 
   248  0EC6                     	;# 
   249  0EC7                     	;# 
   250  0EC7                     	;# 
   251  0EC8                     	;# 
   252  0EC9                     	;# 
   253  0ECA                     	;# 
   254  0ECB                     	;# 
   255  0ECC                     	;# 
   256  0ECD                     	;# 
   257  0ECE                     	;# 
   258  0ECF                     	;# 
   259  0ED1                     	;# 
   260  0ED2                     	;# 
   261  0ED3                     	;# 
   262  0ED4                     	;# 
   263  0ED5                     	;# 
   264  0ED6                     	;# 
   265  0ED7                     	;# 
   266  0ED8                     	;# 
   267  0ED9                     	;# 
   268  0EDA                     	;# 
   269  0EDB                     	;# 
   270  0EDC                     	;# 
   271  0EDD                     	;# 
   272  0EDE                     	;# 
   273  0EDF                     	;# 
   274  0EE0                     	;# 
   275  0EE1                     	;# 
   276  0EE1                     	;# 
   277  0EE2                     	;# 
   278  0EE3                     	;# 
   279  0EE3                     	;# 
   280  0EE4                     	;# 
   281  0EE5                     	;# 
   282  0EE5                     	;# 
   283  0EE6                     	;# 
   284  0EE7                     	;# 
   285  0EE7                     	;# 
   286  0EE8                     	;# 
   287  0EE9                     	;# 
   288  0EEA                     	;# 
   289  0EEB                     	;# 
   290  0EEC                     	;# 
   291  0EED                     	;# 
   292  0EEE                     	;# 
   293  0EEF                     	;# 
   294  0F11                     	;# 
   295  0F12                     	;# 
   296  0F13                     	;# 
   297  0F14                     	;# 
   298  0F15                     	;# 
   299  0F16                     	;# 
   300  0F17                     	;# 
   301  0F18                     	;# 
   302  0F19                     	;# 
   303  0F1A                     	;# 
   304  0F1B                     	;# 
   305  0F1C                     	;# 
   306  0F1D                     	;# 
   307  0F1E                     	;# 
   308  0F1F                     	;# 
   309  0F20                     	;# 
   310  0F21                     	;# 
   311  0F21                     	;# 
   312  0F22                     	;# 
   313  0F23                     	;# 
   314  0F23                     	;# 
   315  0F24                     	;# 
   316  0F25                     	;# 
   317  0F25                     	;# 
   318  0F26                     	;# 
   319  0F27                     	;# 
   320  0F27                     	;# 
   321  0F28                     	;# 
   322  0F29                     	;# 
   323  0F2A                     	;# 
   324  0F2B                     	;# 
   325  0F2C                     	;# 
   326  0F2D                     	;# 
   327  0F2E                     	;# 
   328  0F2F                     	;# 
   329  0FE4                     	;# 
   330  0FE5                     	;# 
   331  0FE6                     	;# 
   332  0FE7                     	;# 
   333  0FE8                     	;# 
   334  0FE9                     	;# 
   335  0FEA                     	;# 
   336  0FEB                     	;# 
   337  0FED                     	;# 
   338  0FEE                     	;# 
   339  0FEF                     	;# 
   340  0000                     	;# 
   341  0001                     	;# 
   342  0002                     	;# 
   343  0003                     	;# 
   344  0004                     	;# 
   345  0005                     	;# 
   346  0006                     	;# 
   347  0007                     	;# 
   348  0008                     	;# 
   349  0009                     	;# 
   350  000A                     	;# 
   351  000B                     	;# 
   352  000C                     	;# 
   353  000D                     	;# 
   354  000E                     	;# 
   355  0010                     	;# 
   356  0011                     	;# 
   357  0012                     	;# 
   358  0013                     	;# 
   359  0014                     	;# 
   360  0015                     	;# 
   361  0016                     	;# 
   362  0016                     	;# 
   363  0017                     	;# 
   364  0018                     	;# 
   365  0019                     	;# 
   366  001A                     	;# 
   367  001B                     	;# 
   368  001C                     	;# 
   369  008C                     	;# 
   370  008D                     	;# 
   371  008E                     	;# 
   372  0090                     	;# 
   373  0091                     	;# 
   374  0092                     	;# 
   375  0093                     	;# 
   376  0094                     	;# 
   377  0095                     	;# 
   378  0096                     	;# 
   379  0097                     	;# 
   380  0098                     	;# 
   381  0099                     	;# 
   382  009A                     	;# 
   383  009B                     	;# 
   384  009B                     	;# 
   385  009C                     	;# 
   386  009D                     	;# 
   387  009E                     	;# 
   388  009F                     	;# 
   389  010C                     	;# 
   390  010D                     	;# 
   391  010E                     	;# 
   392  0111                     	;# 
   393  0112                     	;# 
   394  0113                     	;# 
   395  0114                     	;# 
   396  0115                     	;# 
   397  0116                     	;# 
   398  0117                     	;# 
   399  0118                     	;# 
   400  0119                     	;# 
   401  011A                     	;# 
   402  011B                     	;# 
   403  011C                     	;# 
   404  011D                     	;# 
   405  011D                     	;# 
   406  011D                     	;# 
   407  011E                     	;# 
   408  011F                     	;# 
   409  018C                     	;# 
   410  018D                     	;# 
   411  018E                     	;# 
   412  0191                     	;# 
   413  0191                     	;# 
   414  0192                     	;# 
   415  0193                     	;# 
   416  0193                     	;# 
   417  0193                     	;# 
   418  0194                     	;# 
   419  0195                     	;# 
   420  0196                     	;# 
   421  0197                     	;# 
   422  0199                     	;# 
   423  0199                     	;# 
   424  0199                     	;# 
   425  019A                     	;# 
   426  019A                     	;# 
   427  019A                     	;# 
   428  019B                     	;# 
   429  019B                     	;# 
   430  019B                     	;# 
   431  019B                     	;# 
   432  019B                     	;# 
   433  019C                     	;# 
   434  019C                     	;# 
   435  019C                     	;# 
   436  019D                     	;# 
   437  019D                     	;# 
   438  019D                     	;# 
   439  019E                     	;# 
   440  019E                     	;# 
   441  019E                     	;# 
   442  019F                     	;# 
   443  019F                     	;# 
   444  019F                     	;# 
   445  019F                     	;# 
   446  019F                     	;# 
   447  020C                     	;# 
   448  020D                     	;# 
   449  020E                     	;# 
   450  0210                     	;# 
   451  0211                     	;# 
   452  0211                     	;# 
   453  0212                     	;# 
   454  0212                     	;# 
   455  0213                     	;# 
   456  0213                     	;# 
   457  0214                     	;# 
   458  0214                     	;# 
   459  0215                     	;# 
   460  0215                     	;# 
   461  0215                     	;# 
   462  0215                     	;# 
   463  0216                     	;# 
   464  0216                     	;# 
   465  0217                     	;# 
   466  0217                     	;# 
   467  028C                     	;# 
   468  028D                     	;# 
   469  028E                     	;# 
   470  0291                     	;# 
   471  0291                     	;# 
   472  0292                     	;# 
   473  0293                     	;# 
   474  0298                     	;# 
   475  0298                     	;# 
   476  0299                     	;# 
   477  029A                     	;# 
   478  030C                     	;# 
   479  030D                     	;# 
   480  030E                     	;# 
   481  0311                     	;# 
   482  0311                     	;# 
   483  0312                     	;# 
   484  0313                     	;# 
   485  038C                     	;# 
   486  038D                     	;# 
   487  038E                     	;# 
   488  0390                     	;# 
   489  0391                     	;# 
   490  0392                     	;# 
   491  0393                     	;# 
   492  0394                     	;# 
   493  0395                     	;# 
   494  0396                     	;# 
   495  0397                     	;# 
   496  0398                     	;# 
   497  0399                     	;# 
   498  039D                     	;# 
   499  039E                     	;# 
   500  039F                     	;# 
   501  0511                     	;# 
   502  0513                     	;# 
   503  051A                     	;# 
   504  0591                     	;# 
   505  0592                     	;# 
   506  0592                     	;# 
   507  0593                     	;# 
   508  0594                     	;# 
   509  0594                     	;# 
   510  0595                     	;# 
   511  0596                     	;# 
   512  0596                     	;# 
   513  0E91                     	;# 
   514  0E92                     	;# 
   515  0E93                     	;# 
   516  0E94                     	;# 
   517  0E95                     	;# 
   518  0E96                     	;# 
   519  0E97                     	;# 
   520  0E98                     	;# 
   521  0E99                     	;# 
   522  0E9A                     	;# 
   523  0E9B                     	;# 
   524  0E9C                     	;# 
   525  0E9D                     	;# 
   526  0E9E                     	;# 
   527  0E9F                     	;# 
   528  0EA0                     	;# 
   529  0EA1                     	;# 
   530  0EA1                     	;# 
   531  0EA2                     	;# 
   532  0EA3                     	;# 
   533  0EA3                     	;# 
   534  0EA4                     	;# 
   535  0EA5                     	;# 
   536  0EA5                     	;# 
   537  0EA6                     	;# 
   538  0EA7                     	;# 
   539  0EA7                     	;# 
   540  0EA8                     	;# 
   541  0EA9                     	;# 
   542  0EAA                     	;# 
   543  0EAB                     	;# 
   544  0EAC                     	;# 
   545  0EAD                     	;# 
   546  0EAE                     	;# 
   547  0EAF                     	;# 
   548  0EB1                     	;# 
   549  0EB2                     	;# 
   550  0EB3                     	;# 
   551  0EB4                     	;# 
   552  0EB5                     	;# 
   553  0EB6                     	;# 
   554  0EB7                     	;# 
   555  0EB8                     	;# 
   556  0EB9                     	;# 
   557  0EBA                     	;# 
   558  0EBB                     	;# 
   559  0EBC                     	;# 
   560  0EBD                     	;# 
   561  0EBE                     	;# 
   562  0EBF                     	;# 
   563  0EC0                     	;# 
   564  0EC1                     	;# 
   565  0EC1                     	;# 
   566  0EC2                     	;# 
   567  0EC3                     	;# 
   568  0EC3                     	;# 
   569  0EC4                     	;# 
   570  0EC5                     	;# 
   571  0EC5                     	;# 
   572  0EC6                     	;# 
   573  0EC7                     	;# 
   574  0EC7                     	;# 
   575  0EC8                     	;# 
   576  0EC9                     	;# 
   577  0ECA                     	;# 
   578  0ECB                     	;# 
   579  0ECC                     	;# 
   580  0ECD                     	;# 
   581  0ECE                     	;# 
   582  0ECF                     	;# 
   583  0ED1                     	;# 
   584  0ED2                     	;# 
   585  0ED3                     	;# 
   586  0ED4                     	;# 
   587  0ED5                     	;# 
   588  0ED6                     	;# 
   589  0ED7                     	;# 
   590  0ED8                     	;# 
   591  0ED9                     	;# 
   592  0EDA                     	;# 
   593  0EDB                     	;# 
   594  0EDC                     	;# 
   595  0EDD                     	;# 
   596  0EDE                     	;# 
   597  0EDF                     	;# 
   598  0EE0                     	;# 
   599  0EE1                     	;# 
   600  0EE1                     	;# 
   601  0EE2                     	;# 
   602  0EE3                     	;# 
   603  0EE3                     	;# 
   604  0EE4                     	;# 
   605  0EE5                     	;# 
   606  0EE5                     	;# 
   607  0EE6                     	;# 
   608  0EE7                     	;# 
   609  0EE7                     	;# 
   610  0EE8                     	;# 
   611  0EE9                     	;# 
   612  0EEA                     	;# 
   613  0EEB                     	;# 
   614  0EEC                     	;# 
   615  0EED                     	;# 
   616  0EEE                     	;# 
   617  0EEF                     	;# 
   618  0F11                     	;# 
   619  0F12                     	;# 
   620  0F13                     	;# 
   621  0F14                     	;# 
   622  0F15                     	;# 
   623  0F16                     	;# 
   624  0F17                     	;# 
   625  0F18                     	;# 
   626  0F19                     	;# 
   627  0F1A                     	;# 
   628  0F1B                     	;# 
   629  0F1C                     	;# 
   630  0F1D                     	;# 
   631  0F1E                     	;# 
   632  0F1F                     	;# 
   633  0F20                     	;# 
   634  0F21                     	;# 
   635  0F21                     	;# 
   636  0F22                     	;# 
   637  0F23                     	;# 
   638  0F23                     	;# 
   639  0F24                     	;# 
   640  0F25                     	;# 
   641  0F25                     	;# 
   642  0F26                     	;# 
   643  0F27                     	;# 
   644  0F27                     	;# 
   645  0F28                     	;# 
   646  0F29                     	;# 
   647  0F2A                     	;# 
   648  0F2B                     	;# 
   649  0F2C                     	;# 
   650  0F2D                     	;# 
   651  0F2E                     	;# 
   652  0F2F                     	;# 
   653  0FE4                     	;# 
   654  0FE5                     	;# 
   655  0FE6                     	;# 
   656  0FE7                     	;# 
   657  0FE8                     	;# 
   658  0FE9                     	;# 
   659  0FEA                     	;# 
   660  0FEB                     	;# 
   661  0FED                     	;# 
   662  0FEE                     	;# 
   663  0FEF                     	;# 
   664                           
   665                           	psect	idataBANK0
   666  0652                     __pidataBANK0:	
   667                           
   668                           ;initializer for _health
   669  0652  3432               	retlw	50
   670  005F                     _GIE	set	95
   671  0099                     _OSCCON	set	153
   672  0094                     _PIE4	set	148
   673  008E                     _TRISCbits	set	142
   674  0E9D                     _PSMC1ASDC	set	3741
   675  0E9E                     _PSMC1ASDL	set	3742
   676  0E9F                     _PSMC1ASDS	set	3743
   677  0EAC                     _PSMC1BLKF	set	3756
   678  0EAB                     _PSMC1BLKR	set	3755
   679  0E97                     _PSMC1BLNK	set	3735
   680  0E94                     _PSMC1CLK	set	3732
   681  0E91                     _PSMC1CON	set	3729
   682  0EAA                     _PSMC1DBF	set	3754
   683  0EA9                     _PSMC1DBR	set	3753
   684  0EA4                     _PSMC1DCH	set	3748
   685  0EA3                     _PSMC1DCL	set	3747
   686  0E9B                     _PSMC1DCS	set	3739
   687  0E99                     _PSMC1FEBS	set	3737
   688  0EAD                     _PSMC1FFA	set	3757
   689  0EA0                     _PSMC1INT	set	3744
   690  0E92                     _PSMC1MDL	set	3730
   691  0E95                     _PSMC1OEN	set	3733
   692  0EA2                     _PSMC1PHH	set	3746
   693  0EA1                     _PSMC1PHL	set	3745
   694  0E9A                     _PSMC1PHS	set	3738
   695  0E96                     _PSMC1POL	set	3734
   696  0EA6                     _PSMC1PRH	set	3750
   697  0EA5                     _PSMC1PRL	set	3749
   698  0E9C                     _PSMC1PRS	set	3740
   699  0E98                     _PSMC1REBS	set	3736
   700  0EAE                     _PSMC1STR0	set	3758
   701  0EAF                     _PSMC1STR1	set	3759
   702  0E93                     _PSMC1SYNC	set	3731
   703  7495                     _P1MDLBIT	set	29845
   704                           
   705                           	psect	stringtext
   706  0800                     __pstringtext:	
   707  0800                     STR_5:	
   708  0800  3444               	retlw	68	;'D'
   709  0801  3469               	retlw	105	;'i'
   710  0802  3473               	retlw	115	;'s'
   711  0803  3470               	retlw	112	;'p'
   712  0804  346C               	retlw	108	;'l'
   713  0805  3461               	retlw	97	;'a'
   714  0806  3479               	retlw	121	;'y'
   715  0807  3465               	retlw	101	;'e'
   716  0808  3464               	retlw	100	;'d'
   717  0809  3420               	retlw	32	;' '
   718  080A  3469               	retlw	105	;'i'
   719  080B  346E               	retlw	110	;'n'
   720  080C  3464               	retlw	100	;'d'
   721  080D  3469               	retlw	105	;'i'
   722  080E  3476               	retlw	118	;'v'
   723  080F  3469               	retlw	105	;'i'
   724  0810  3464               	retlw	100	;'d'
   725  0811  3475               	retlw	117	;'u'
   726  0812  3461               	retlw	97	;'a'
   727  0813  346C               	retlw	108	;'l'
   728  0814  3420               	retlw	32	;' '
   729  0815  3473               	retlw	115	;'s'
   730  0816  3477               	retlw	119	;'w'
   731  0817  346F               	retlw	111	;'o'
   732  0818  3472               	retlw	114	;'r'
   733  0819  3464               	retlw	100	;'d'
   734  081A  3420               	retlw	32	;' '
   735  081B  3473               	retlw	115	;'s'
   736  081C  3477               	retlw	119	;'w'
   737  081D  3469               	retlw	105	;'i'
   738  081E  346E               	retlw	110	;'n'
   739  081F  3467               	retlw	103	;'g'
   740  0820  3420               	retlw	32	;' '
   741  0821  346C               	retlw	108	;'l'
   742  0822  3469               	retlw	105	;'i'
   743  0823  3467               	retlw	103	;'g'
   744  0824  3468               	retlw	104	;'h'
   745  0825  3474               	retlw	116	;'t'
   746  0826  3420               	retlw	32	;' '
   747  0827  3473               	retlw	115	;'s'
   748  0828  3468               	retlw	104	;'h'
   749  0829  346F               	retlw	111	;'o'
   750  082A  3477               	retlw	119	;'w'
   751  082B  342E               	retlw	46	;'.'
   752  082C  340A               	retlw	10
   753  082D  340D               	retlw	13
   754  082E  3400               	retlw	0
   755  082F                     STR_6:	
   756  082F  3444               	retlw	68	;'D'
   757  0830  3469               	retlw	105	;'i'
   758  0831  3473               	retlw	115	;'s'
   759  0832  3470               	retlw	112	;'p'
   760  0833  346C               	retlw	108	;'l'
   761  0834  3461               	retlw	97	;'a'
   762  0835  3479               	retlw	121	;'y'
   763  0836  3465               	retlw	101	;'e'
   764  0837  3464               	retlw	100	;'d'
   765  0838  3420               	retlw	32	;' '
   766  0839  344F               	retlw	79	;'O'
   767  083A  346D               	retlw	109	;'m'
   768  083B  3465               	retlw	101	;'e'
   769  083C  3467               	retlw	103	;'g'
   770  083D  3461               	retlw	97	;'a'
   771  083E  3420               	retlw	32	;' '
   772  083F  3462               	retlw	98	;'b'
   773  0840  346C               	retlw	108	;'l'
   774  0841  3461               	retlw	97	;'a'
   775  0842  3464               	retlw	100	;'d'
   776  0843  3465               	retlw	101	;'e'
   777  0844  3420               	retlw	32	;' '
   778  0845  3473               	retlw	115	;'s'
   779  0846  3477               	retlw	119	;'w'
   780  0847  3469               	retlw	105	;'i'
   781  0848  346E               	retlw	110	;'n'
   782  0849  3467               	retlw	103	;'g'
   783  084A  3420               	retlw	32	;' '
   784  084B  346C               	retlw	108	;'l'
   785  084C  3469               	retlw	105	;'i'
   786  084D  3467               	retlw	103	;'g'
   787  084E  3468               	retlw	104	;'h'
   788  084F  3474               	retlw	116	;'t'
   789  0850  3420               	retlw	32	;' '
   790  0851  3473               	retlw	115	;'s'
   791  0852  3468               	retlw	104	;'h'
   792  0853  346F               	retlw	111	;'o'
   793  0854  3477               	retlw	119	;'w'
   794  0855  342E               	retlw	46	;'.'
   795  0856  340A               	retlw	10
   796  0857  340D               	retlw	13
   797  0858  3400               	retlw	0
   798  0859                     STR_2:	
   799  0859  3450               	retlw	80	;'P'
   800  085A  346C               	retlw	108	;'l'
   801  085B  3461               	retlw	97	;'a'
   802  085C  3479               	retlw	121	;'y'
   803  085D  3465               	retlw	101	;'e'
   804  085E  3464               	retlw	100	;'d'
   805  085F  3420               	retlw	32	;' '
   806  0860  344F               	retlw	79	;'O'
   807  0861  346D               	retlw	109	;'m'
   808  0862  3465               	retlw	101	;'e'
   809  0863  3467               	retlw	103	;'g'
   810  0864  3461               	retlw	97	;'a'
   811  0865  3420               	retlw	32	;' '
   812  0866  3462               	retlw	98	;'b'
   813  0867  346C               	retlw	108	;'l'
   814  0868  3461               	retlw	97	;'a'
   815  0869  3464               	retlw	100	;'d'
   816  086A  3465               	retlw	101	;'e'
   817  086B  3420               	retlw	32	;' '
   818  086C  3473               	retlw	115	;'s'
   819  086D  3477               	retlw	119	;'w'
   820  086E  3469               	retlw	105	;'i'
   821  086F  346E               	retlw	110	;'n'
   822  0870  3467               	retlw	103	;'g'
   823  0871  3420               	retlw	32	;' '
   824  0872  3473               	retlw	115	;'s'
   825  0873  346F               	retlw	111	;'o'
   826  0874  3475               	retlw	117	;'u'
   827  0875  346E               	retlw	110	;'n'
   828  0876  3464               	retlw	100	;'d'
   829  0877  342E               	retlw	46	;'.'
   830  0878  340A               	retlw	10
   831  0879  340D               	retlw	13
   832  087A  3400               	retlw	0
   833  087B                     STR_1:	
   834  087B  3450               	retlw	80	;'P'
   835  087C  346C               	retlw	108	;'l'
   836  087D  3461               	retlw	97	;'a'
   837  087E  3479               	retlw	121	;'y'
   838  087F  3465               	retlw	101	;'e'
   839  0880  3464               	retlw	100	;'d'
   840  0881  3420               	retlw	32	;' '
   841  0882  3442               	retlw	66	;'B'
   842  0883  3465               	retlw	101	;'e'
   843  0884  3474               	retlw	116	;'t'
   844  0885  3461               	retlw	97	;'a'
   845  0886  3420               	retlw	32	;' '
   846  0887  3462               	retlw	98	;'b'
   847  0888  346C               	retlw	108	;'l'
   848  0889  3461               	retlw	97	;'a'
   849  088A  3464               	retlw	100	;'d'
   850  088B  3465               	retlw	101	;'e'
   851  088C  3420               	retlw	32	;' '
   852  088D  3473               	retlw	115	;'s'
   853  088E  3477               	retlw	119	;'w'
   854  088F  3469               	retlw	105	;'i'
   855  0890  346E               	retlw	110	;'n'
   856  0891  3467               	retlw	103	;'g'
   857  0892  3420               	retlw	32	;' '
   858  0893  3473               	retlw	115	;'s'
   859  0894  346F               	retlw	111	;'o'
   860  0895  3475               	retlw	117	;'u'
   861  0896  346E               	retlw	110	;'n'
   862  0897  3464               	retlw	100	;'d'
   863  0898  342E               	retlw	46	;'.'
   864  0899  340A               	retlw	10
   865  089A  340D               	retlw	13
   866  089B  3400               	retlw	0
   867  089C                     STR_3:	
   868  089C  3449               	retlw	73	;'I'
   869  089D  346E               	retlw	110	;'n'
   870  089E  3469               	retlw	105	;'i'
   871  089F  3474               	retlw	116	;'t'
   872  08A0  3469               	retlw	105	;'i'
   873  08A1  3461               	retlw	97	;'a'
   874  08A2  346C               	retlw	108	;'l'
   875  08A3  3469               	retlw	105	;'i'
   876  08A4  347A               	retlw	122	;'z'
   877  08A5  3465               	retlw	101	;'e'
   878  08A6  3464               	retlw	100	;'d'
   879  08A7  3420               	retlw	32	;' '
   880  08A8  3461               	retlw	97	;'a'
   881  08A9  3463               	retlw	99	;'c'
   882  08AA  3463               	retlw	99	;'c'
   883  08AB  3465               	retlw	101	;'e'
   884  08AC  346C               	retlw	108	;'l'
   885  08AD  3465               	retlw	101	;'e'
   886  08AE  3472               	retlw	114	;'r'
   887  08AF  346F               	retlw	111	;'o'
   888  08B0  346D               	retlw	109	;'m'
   889  08B1  3465               	retlw	101	;'e'
   890  08B2  3474               	retlw	116	;'t'
   891  08B3  3465               	retlw	101	;'e'
   892  08B4  3472               	retlw	114	;'r'
   893  08B5  342E               	retlw	46	;'.'
   894  08B6  340A               	retlw	10
   895  08B7  340D               	retlw	13
   896  08B8  3400               	retlw	0
   897  08B9                     STR_4:	
   898  08B9  3449               	retlw	73	;'I'
   899  08BA  346E               	retlw	110	;'n'
   900  08BB  3469               	retlw	105	;'i'
   901  08BC  3474               	retlw	116	;'t'
   902  08BD  3469               	retlw	105	;'i'
   903  08BE  3461               	retlw	97	;'a'
   904  08BF  346C               	retlw	108	;'l'
   905  08C0  3469               	retlw	105	;'i'
   906  08C1  347A               	retlw	122	;'z'
   907  08C2  3465               	retlw	101	;'e'
   908  08C3  3464               	retlw	100	;'d'
   909  08C4  3420               	retlw	32	;' '
   910  08C5  344C               	retlw	76	;'L'
   911  08C6  3445               	retlw	69	;'E'
   912  08C7  3444               	retlw	68	;'D'
   913  08C8  3473               	retlw	115	;'s'
   914  08C9  342E               	retlw	46	;'.'
   915  08CA  340A               	retlw	10
   916  08CB  340D               	retlw	13
   917  08CC  3400               	retlw	0
   918  08CD                     STR_7:	
   919  08CD  3449               	retlw	73	;'I'
   920  08CE  346E               	retlw	110	;'n'
   921  08CF  3469               	retlw	105	;'i'
   922  08D0  3474               	retlw	116	;'t'
   923  08D1  3469               	retlw	105	;'i'
   924  08D2  3461               	retlw	97	;'a'
   925  08D3  346C               	retlw	108	;'l'
   926  08D4  3469               	retlw	105	;'i'
   927  08D5  347A               	retlw	122	;'z'
   928  08D6  3465               	retlw	101	;'e'
   929  08D7  3464               	retlw	100	;'d'
   930  08D8  3420               	retlw	32	;' '
   931  08D9  3449               	retlw	73	;'I'
   932  08DA  3453               	retlw	83	;'S'
   933  08DB  3452               	retlw	82	;'R'
   934  08DC  342E               	retlw	46	;'.'
   935  08DD  340A               	retlw	10
   936  08DE  340D               	retlw	13
   937  08DF  3400               	retlw	0
   938                           
   939                           ; #config settings
   940  0000                     
   941                           	psect	cinit
   942  07F7                     start_initialization:	
   943  07F7                     __initialization:	
   944                           
   945                           ; Clear objects allocated to COMMON
   946  07F7  01FD               	clrf	__pbssCOMMON& (0+127)
   947                           
   948                           ; Clear objects allocated to BANK0
   949  07F8  01A0               	clrf	__pbssBANK0& (0+127)
   950  07F9  01A1               	clrf	(__pbssBANK0+1)& (0+127)
   951                           
   952                           ; Initialize objects allocated to BANK0
   953  07FA  3186  2652         	fcall	__pidataBANK0	;fetch initializer
   954  07FC  00A2               	movwf	__pdataBANK0& (0+127)
   955  07FD                     end_of_initialization:	
   956                           ;End of C runtime variable initialization code
   957                           
   958  07FD                     __end_of__initialization:	
   959  07FD  0020               	movlb	0
   960  07FE  3186  2E8D         	ljmp	_main	;jump to C main() function
   961                           
   962                           	psect	bssCOMMON
   963  007D                     __pbssCOMMON:	
   964  007D                     _omega_mode:	
   965  007D                     	ds	1
   966                           
   967                           	psect	bssBANK0
   968  0020                     __pbssBANK0:	
   969  0020                     _blade:	
   970  0020                     	ds	1
   971  0021                     _stun_counter:	
   972  0021                     	ds	1
   973                           
   974                           	psect	dataBANK0
   975  0022                     __pdataBANK0:	
   976  0022                     _health:	
   977  0022                     	ds	1
   978                           
   979                           	psect	cstackCOMMON
   980  0070                     __pcstackCOMMON:	
   981  0070                     ?_init_pic:	
   982  0070                     ??_init_pic:	
   983                           ; 0 bytes @ 0x0
   984                           
   985  0070                     ?_init_ir:	
   986                           ; 0 bytes @ 0x0
   987                           
   988  0070                     ??_init_ir:	
   989                           ; 0 bytes @ 0x0
   990                           
   991  0070                     ?_output_ir:	
   992                           ; 0 bytes @ 0x0
   993                           
   994  0070                     ?_main:	
   995                           ; 0 bytes @ 0x0
   996                           
   997  0070                     output_ir@amount:	
   998                           ; 2 bytes @ 0x0
   999                           
  1000                           
  1001                           ; 1 bytes @ 0x0
  1002  0070                     	ds	1
  1003  0071                     ??_output_ir:	
  1004                           
  1005                           ; 0 bytes @ 0x1
  1006  0071                     	ds	2
  1007  0073                     output_ir@i:	
  1008                           
  1009                           ; 2 bytes @ 0x3
  1010  0073                     	ds	2
  1011  0075                     output_ir@i_71:	
  1012                           
  1013                           ; 2 bytes @ 0x5
  1014  0075                     	ds	2
  1015  0077                     output_ir@i_72:	
  1016                           
  1017                           ; 2 bytes @ 0x7
  1018  0077                     	ds	2
  1019  0079                     output_ir@pkt_type:	
  1020                           
  1021                           ; 1 bytes @ 0x9
  1022  0079                     	ds	1
  1023  007A                     ??_main:	
  1024                           
  1025                           ; 0 bytes @ 0xA
  1026  007A                     	ds	3
  1027                           
  1028                           	psect	maintext
  1029  068D                     __pmaintext:	
  1030 ;;
  1031 ;;Main: autosize = 0, tempsize = 3, incstack = 0, save=0
  1032 ;;
  1033 ;; *************** function _main *****************
  1034 ;; Defined at:
  1035 ;;		line 19 in file "main.c"
  1036 ;; Parameters:    Size  Location     Type
  1037 ;;		None
  1038 ;; Auto vars:     Size  Location     Type
  1039 ;;		None
  1040 ;; Return value:  Size  Location     Type
  1041 ;;                  2  151[None  ] int 
  1042 ;; Registers used:
  1043 ;;		wreg, status,2, status,0, pclath, cstack
  1044 ;; Tracked objects:
  1045 ;;		On entry : B1F/0
  1046 ;;		On exit  : 0/0
  1047 ;;		Unchanged: 0/0
  1048 ;; Data sizes:     COMMON   BANK0   BANK1   BANK2   BANK3   BANK4   BANK5   BANK6   BANK7   BANK8   BANK9  BANK10  BANK1
      +1  BANK12  BANK13  BANK14  BANK15  BANK16  BANK17  BANK18  BANK19  BANK20  BANK21  BANK22  BANK23  BANK24  BANK25
  1049 ;;      Params:         0       0       0       0       0       0       0       0       0       0       0       0       
      +0       0       0       0       0       0       0       0       0       0       0       0       0       0       0
  1050 ;;      Locals:         0       0       0       0       0       0       0       0       0       0       0       0       
      +0       0       0       0       0       0       0       0       0       0       0       0       0       0       0
  1051 ;;      Temps:          3       0       0       0       0       0       0       0       0       0       0       0       
      +0       0       0       0       0       0       0       0       0       0       0       0       0       0       0
  1052 ;;      Totals:         3       0       0       0       0       0       0       0       0       0       0       0       
      +0       0       0       0       0       0       0       0       0       0       0       0       0       0       0
  1053 ;;Total ram usage:        3 bytes
  1054 ;; Hardware stack levels required when called:    1
  1055 ;; This function calls:
  1056 ;;		_init_ir
  1057 ;;		_init_pic
  1058 ;;		_output_ir
  1059 ;; This function is called by:
  1060 ;;		Startup code after reset
  1061 ;; This function uses a non-reentrant model
  1062 ;;
  1063                           
  1064                           
  1065                           ;psect for function _main
  1066  068D                     _main:	
  1067                           
  1068                           ;main.c: 21: init_pic();
  1069                           
  1070                           ;incstack = 0
  1071                           ; Regs used in _main: [wreg+status,2+status,0+pclath+cstack]
  1072  068D  3186  2653  3186   	fcall	_init_pic
  1073                           
  1074                           ;main.c: 22: init_ir();
  1075  0690  3186  265B  3186   	fcall	_init_ir
  1076  0693                     l152:	
  1077                           ;main.c: 24: while(1){
  1078                           
  1079                           
  1080                           ;main.c: 25: output_ir(0,100);
  1081  0693  3064               	movlw	100
  1082  0694  00FA               	movwf	??_main
  1083  0695  087A               	movf	??_main,w
  1084  0696  00F0               	movwf	output_ir@amount
  1085  0697  3000               	movlw	0
  1086  0698  3186  26D3  3186   	fcall	_output_ir
  1087                           
  1088                           ;main.c: 26: _delay((unsigned long)((250)*(32000000/4000.0)));
  1089  069B  300B               	movlw	11
  1090  069C  00FC               	movwf	??_main+2
  1091  069D  3026               	movlw	38
  1092  069E  00FB               	movwf	??_main+1
  1093  069F  3066               	movlw	102
  1094  06A0  00FA               	movwf	??_main
  1095  06A1                     u157:	
  1096  06A1  0BFA               	decfsz	??_main,f
  1097  06A2  2EA1               	goto	u157
  1098  06A3  0BFB               	decfsz	??_main+1,f
  1099  06A4  2EA1               	goto	u157
  1100  06A5  0BFC               	decfsz	??_main+2,f
  1101  06A6  2EA1               	goto	u157
  1102  06A7  3200               	nop2
  1103                           
  1104                           ;main.c: 27: output_ir(1,100);
  1105  06A8  3064               	movlw	100
  1106  06A9  00FA               	movwf	??_main
  1107  06AA  087A               	movf	??_main,w
  1108  06AB  00F0               	movwf	output_ir@amount
  1109  06AC  3001               	movlw	1
  1110  06AD  3186  26D3  3186   	fcall	_output_ir
  1111                           
  1112                           ;main.c: 28: _delay((unsigned long)((250)*(32000000/4000.0)));
  1113  06B0  300B               	movlw	11
  1114  06B1  00FC               	movwf	??_main+2
  1115  06B2  3026               	movlw	38
  1116  06B3  00FB               	movwf	??_main+1
  1117  06B4  3066               	movlw	102
  1118  06B5  00FA               	movwf	??_main
  1119  06B6                     u167:	
  1120  06B6  0BFA               	decfsz	??_main,f
  1121  06B7  2EB6               	goto	u167
  1122  06B8  0BFB               	decfsz	??_main+1,f
  1123  06B9  2EB6               	goto	u167
  1124  06BA  0BFC               	decfsz	??_main+2,f
  1125  06BB  2EB6               	goto	u167
  1126  06BC  3200               	nop2
  1127                           
  1128                           ;main.c: 29: output_ir(2,100);
  1129  06BD  3064               	movlw	100
  1130  06BE  00FA               	movwf	??_main
  1131  06BF  087A               	movf	??_main,w
  1132  06C0  00F0               	movwf	output_ir@amount
  1133  06C1  3002               	movlw	2
  1134  06C2  3186  26D3  3186   	fcall	_output_ir
  1135                           
  1136                           ;main.c: 30: _delay((unsigned long)((250)*(32000000/4000.0)));
  1137  06C5  300B               	movlw	11
  1138  06C6  00FC               	movwf	??_main+2
  1139  06C7  3026               	movlw	38
  1140  06C8  00FB               	movwf	??_main+1
  1141  06C9  3066               	movlw	102
  1142  06CA  00FA               	movwf	??_main
  1143  06CB                     u177:	
  1144  06CB  0BFA               	decfsz	??_main,f
  1145  06CC  2ECB               	goto	u177
  1146  06CD  0BFB               	decfsz	??_main+1,f
  1147  06CE  2ECB               	goto	u177
  1148  06CF  0BFC               	decfsz	??_main+2,f
  1149  06D0  2ECB               	goto	u177
  1150  06D1  3200               	nop2
  1151  06D2  2E93               	goto	l152
  1152  06D3                     __end_of_main:	
  1153                           
  1154                           	psect	text1
  1155  06D3                     __ptext1:	
  1156 ;; *************** function _output_ir *****************
  1157 ;; Defined at:
  1158 ;;		line 53 in file "function_stubs.c"
  1159 ;; Parameters:    Size  Location     Type
  1160 ;;  pkt_type        1    wreg     unsigned char 
  1161 ;;  amount          1    0[COMMON] unsigned char 
  1162 ;; Auto vars:     Size  Location     Type
  1163 ;;  pkt_type        1    9[COMMON] unsigned char 
  1164 ;;  i               2    7[COMMON] int 
  1165 ;;  i               2    5[COMMON] int 
  1166 ;;  i               2    3[COMMON] int 
  1167 ;; Return value:  Size  Location     Type
  1168 ;;		None               void
  1169 ;; Registers used:
  1170 ;;		wreg, status,2, status,0
  1171 ;; Tracked objects:
  1172 ;;		On entry : 0/0
  1173 ;;		On exit  : 0/0
  1174 ;;		Unchanged: 0/0
  1175 ;; Data sizes:     COMMON   BANK0   BANK1   BANK2   BANK3   BANK4   BANK5   BANK6   BANK7   BANK8   BANK9  BANK10  BANK1
      +1  BANK12  BANK13  BANK14  BANK15  BANK16  BANK17  BANK18  BANK19  BANK20  BANK21  BANK22  BANK23  BANK24  BANK25
  1176 ;;      Params:         1       0       0       0       0       0       0       0       0       0       0       0       
      +0       0       0       0       0       0       0       0       0       0       0       0       0       0       0
  1177 ;;      Locals:         7       0       0       0       0       0       0       0       0       0       0       0       
      +0       0       0       0       0       0       0       0       0       0       0       0       0       0       0
  1178 ;;      Temps:          2       0       0       0       0       0       0       0       0       0       0       0       
      +0       0       0       0       0       0       0       0       0       0       0       0       0       0       0
  1179 ;;      Totals:        10       0       0       0       0       0       0       0       0       0       0       0       
      +0       0       0       0       0       0       0       0       0       0       0       0       0       0       0
  1180 ;;Total ram usage:       10 bytes
  1181 ;; Hardware stack levels used:    1
  1182 ;; This function calls:
  1183 ;;		Nothing
  1184 ;; This function is called by:
  1185 ;;		_main
  1186 ;; This function uses a non-reentrant model
  1187 ;;
  1188                           
  1189                           
  1190                           ;psect for function _output_ir
  1191  06D3                     _output_ir:	
  1192                           
  1193                           ;incstack = 0
  1194                           ; Regs used in _output_ir: [wreg+status,2+status,0]
  1195                           ;output_ir@pkt_type stored from wreg
  1196  06D3  00F9               	movwf	output_ir@pkt_type
  1197                           
  1198                           ;function_stubs.c: 56: if(pkt_type == 0)
  1199  06D4  0879               	movf	output_ir@pkt_type,w
  1200  06D5  1D03               	btfss	3,2
  1201  06D6  2F36               	goto	l814
  1202                           
  1203                           ;function_stubs.c: 57: {
  1204                           ;function_stubs.c: 58: for(int i = 0;i < amount;i++){
  1205  06D7  01F3               	clrf	output_ir@i
  1206  06D8  01F4               	clrf	output_ir@i+1
  1207  06D9                     l77:	
  1208  06D9  0874               	movf	output_ir@i+1,w
  1209  06DA  3A80               	xorlw	128
  1210  06DB  00F1               	movwf	??_output_ir
  1211  06DC  3080               	movlw	128
  1212  06DD  0271               	subwf	??_output_ir,w
  1213  06DE  1D03               	skipz
  1214  06DF  2EE2               	goto	u115
  1215  06E0  0870               	movf	output_ir@amount,w
  1216  06E1  0273               	subwf	output_ir@i,w
  1217  06E2                     u115:	
  1218  06E2  1803               	btfsc	3,0
  1219  06E3  0008               	return
  1220                           
  1221                           ;function_stubs.c: 61: P1MDLBIT = 1;
  1222  06E4  003D               	movlb	29	; select bank29
  1223  06E5  1692               	bsf	18,5	;volatile
  1224                           
  1225                           ;function_stubs.c: 62: _delay((unsigned long)((178)*(32000000/4000000.0)));
  1226  06E6  30ED               	movlw	237
  1227  06E7  00F1               	movwf	??_output_ir
  1228  06E8                     u187:	
  1229  06E8  3200               	nop2
  1230  06E9  0000               	nop
  1231  06EA  0BF1               	decfsz	??_output_ir,f
  1232  06EB  2EE8               	goto	u187
  1233  06EC  0000               	nop
  1234                           
  1235                           ;function_stubs.c: 63: P1MDLBIT = 0;
  1236  06ED  003D               	movlb	29	; select bank29
  1237  06EE  1292               	bcf	18,5	;volatile
  1238                           
  1239                           ;function_stubs.c: 64: _delay((unsigned long)((2678-178)*(32000000/4000000.0)));
  1240  06EF  301A               	movlw	26
  1241  06F0  00F2               	movwf	??_output_ir+1
  1242  06F1  30F8               	movlw	248
  1243  06F2  00F1               	movwf	??_output_ir
  1244  06F3                     u197:	
  1245  06F3  0BF1               	decfsz	??_output_ir,f
  1246  06F4  2EF3               	goto	u197
  1247  06F5  0BF2               	decfsz	??_output_ir+1,f
  1248  06F6  2EF3               	goto	u197
  1249  06F7  0000               	nop
  1250                           
  1251                           ;function_stubs.c: 67: P1MDLBIT = 1;
  1252  06F8  003D               	movlb	29	; select bank29
  1253  06F9  1692               	bsf	18,5	;volatile
  1254                           
  1255                           ;function_stubs.c: 68: _delay((unsigned long)((357)*(32000000/4000000.0)));
  1256  06FA  3004               	movlw	4
  1257  06FB  00F2               	movwf	??_output_ir+1
  1258  06FC  30B4               	movlw	180
  1259  06FD  00F1               	movwf	??_output_ir
  1260  06FE                     u207:	
  1261  06FE  0BF1               	decfsz	??_output_ir,f
  1262  06FF  2EFE               	goto	u207
  1263  0700  0BF2               	decfsz	??_output_ir+1,f
  1264  0701  2EFE               	goto	u207
  1265  0702  0000               	nop
  1266                           
  1267                           ;function_stubs.c: 69: P1MDLBIT = 0;
  1268  0703  003D               	movlb	29	; select bank29
  1269  0704  1292               	bcf	18,5	;volatile
  1270                           
  1271                           ;function_stubs.c: 70: _delay((unsigned long)((2678-357)*(32000000/4000000.0)));
  1272  0705  3019               	movlw	25
  1273  0706  00F2               	movwf	??_output_ir+1
  1274  0707  301B               	movlw	27
  1275  0708  00F1               	movwf	??_output_ir
  1276  0709                     u217:	
  1277  0709  0BF1               	decfsz	??_output_ir,f
  1278  070A  2F09               	goto	u217
  1279  070B  0BF2               	decfsz	??_output_ir+1,f
  1280  070C  2F09               	goto	u217
  1281  070D  3200               	nop2
  1282                           
  1283                           ;function_stubs.c: 71: P1MDLBIT = 1;
  1284  070E  003D               	movlb	29	; select bank29
  1285  070F  1692               	bsf	18,5	;volatile
  1286                           
  1287                           ;function_stubs.c: 72: _delay((unsigned long)((357)*(32000000/4000000.0)));
  1288  0710  3004               	movlw	4
  1289  0711  00F2               	movwf	??_output_ir+1
  1290  0712  30B4               	movlw	180
  1291  0713  00F1               	movwf	??_output_ir
  1292  0714                     u227:	
  1293  0714  0BF1               	decfsz	??_output_ir,f
  1294  0715  2F14               	goto	u227
  1295  0716  0BF2               	decfsz	??_output_ir+1,f
  1296  0717  2F14               	goto	u227
  1297  0718  0000               	nop
  1298                           
  1299                           ;function_stubs.c: 73: P1MDLBIT = 0;
  1300  0719  003D               	movlb	29	; select bank29
  1301  071A  1292               	bcf	18,5	;volatile
  1302                           
  1303                           ;function_stubs.c: 74: _delay((unsigned long)((2678-357)*(32000000/4000000.0)));
  1304  071B  3019               	movlw	25
  1305  071C  00F2               	movwf	??_output_ir+1
  1306  071D  301B               	movlw	27
  1307  071E  00F1               	movwf	??_output_ir
  1308  071F                     u237:	
  1309  071F  0BF1               	decfsz	??_output_ir,f
  1310  0720  2F1F               	goto	u237
  1311  0721  0BF2               	decfsz	??_output_ir+1,f
  1312  0722  2F1F               	goto	u237
  1313  0723  3200               	nop2
  1314                           
  1315                           ;function_stubs.c: 77: P1MDLBIT = 1;
  1316  0724  003D               	movlb	29	; select bank29
  1317  0725  1692               	bsf	18,5	;volatile
  1318                           
  1319                           ;function_stubs.c: 78: _delay((unsigned long)((2678)*(32000000/4000000.0)));
  1320  0726  301C               	movlw	28
  1321  0727  00F2               	movwf	??_output_ir+1
  1322  0728  30D1               	movlw	209
  1323  0729  00F1               	movwf	??_output_ir
  1324  072A                     u247:	
  1325  072A  0BF1               	decfsz	??_output_ir,f
  1326  072B  2F2A               	goto	u247
  1327  072C  0BF2               	decfsz	??_output_ir+1,f
  1328  072D  2F2A               	goto	u247
  1329  072E  3200               	nop2
  1330                           
  1331                           ;function_stubs.c: 79: P1MDLBIT = 0;
  1332  072F  003D               	movlb	29	; select bank29
  1333  0730  1292               	bcf	18,5	;volatile
  1334  0731  3001               	movlw	1
  1335  0732  07F3               	addwf	output_ir@i,f
  1336  0733  3000               	movlw	0
  1337  0734  3DF4               	addwfc	output_ir@i+1,f
  1338  0735  2ED9               	goto	l77
  1339  0736                     l814:	
  1340                           ;function_stubs.c: 80: }
  1341                           ;function_stubs.c: 82: }
  1342                           
  1343                           
  1344                           ;function_stubs.c: 83: else if(pkt_type == 1)
  1345  0736  0379               	decf	output_ir@pkt_type,w
  1346  0737  1D03               	btfss	3,2
  1347  0738  2F98               	goto	l834
  1348                           
  1349                           ;function_stubs.c: 84: {
  1350                           ;function_stubs.c: 85: for(int i = 0;i < amount;i++){
  1351  0739  01F5               	clrf	output_ir@i_71
  1352  073A  01F6               	clrf	output_ir@i_71+1
  1353  073B                     l82:	
  1354  073B  0876               	movf	output_ir@i_71+1,w
  1355  073C  3A80               	xorlw	128
  1356  073D  00F1               	movwf	??_output_ir
  1357  073E  3080               	movlw	128
  1358  073F  0271               	subwf	??_output_ir,w
  1359  0740  1D03               	skipz
  1360  0741  2F44               	goto	u135
  1361  0742  0870               	movf	output_ir@amount,w
  1362  0743  0275               	subwf	output_ir@i_71,w
  1363  0744                     u135:	
  1364  0744  1803               	btfsc	3,0
  1365  0745  0008               	return
  1366                           
  1367                           ;function_stubs.c: 88: P1MDLBIT = 1;
  1368  0746  003D               	movlb	29	; select bank29
  1369  0747  1692               	bsf	18,5	;volatile
  1370                           
  1371                           ;function_stubs.c: 89: _delay((unsigned long)((178)*(32000000/4000000.0)));
  1372  0748  30ED               	movlw	237
  1373  0749  00F1               	movwf	??_output_ir
  1374  074A                     u257:	
  1375  074A  3200               	nop2
  1376  074B  0000               	nop
  1377  074C  0BF1               	decfsz	??_output_ir,f
  1378  074D  2F4A               	goto	u257
  1379  074E  0000               	nop
  1380                           
  1381                           ;function_stubs.c: 90: P1MDLBIT = 0;
  1382  074F  003D               	movlb	29	; select bank29
  1383  0750  1292               	bcf	18,5	;volatile
  1384                           
  1385                           ;function_stubs.c: 91: _delay((unsigned long)((2678-178)*(32000000/4000000.0)));
  1386  0751  301A               	movlw	26
  1387  0752  00F2               	movwf	??_output_ir+1
  1388  0753  30F8               	movlw	248
  1389  0754  00F1               	movwf	??_output_ir
  1390  0755                     u267:	
  1391  0755  0BF1               	decfsz	??_output_ir,f
  1392  0756  2F55               	goto	u267
  1393  0757  0BF2               	decfsz	??_output_ir+1,f
  1394  0758  2F55               	goto	u267
  1395  0759  0000               	nop
  1396                           
  1397                           ;function_stubs.c: 94: P1MDLBIT = 1;
  1398  075A  003D               	movlb	29	; select bank29
  1399  075B  1692               	bsf	18,5	;volatile
  1400                           
  1401                           ;function_stubs.c: 95: _delay((unsigned long)((535)*(32000000/4000000.0)));
  1402  075C  3006               	movlw	6
  1403  075D  00F2               	movwf	??_output_ir+1
  1404  075E  308D               	movlw	141
  1405  075F  00F1               	movwf	??_output_ir
  1406  0760                     u277:	
  1407  0760  0BF1               	decfsz	??_output_ir,f
  1408  0761  2F60               	goto	u277
  1409  0762  0BF2               	decfsz	??_output_ir+1,f
  1410  0763  2F60               	goto	u277
  1411  0764  3200               	nop2
  1412                           
  1413                           ;function_stubs.c: 96: P1MDLBIT = 0;
  1414  0765  003D               	movlb	29	; select bank29
  1415  0766  1292               	bcf	18,5	;volatile
  1416                           
  1417                           ;function_stubs.c: 97: _delay((unsigned long)((2678-535)*(32000000/4000000.0)));
  1418  0767  3017               	movlw	23
  1419  0768  00F2               	movwf	??_output_ir+1
  1420  0769  3042               	movlw	66
  1421  076A  00F1               	movwf	??_output_ir
  1422  076B                     u287:	
  1423  076B  0BF1               	decfsz	??_output_ir,f
  1424  076C  2F6B               	goto	u287
  1425  076D  0BF2               	decfsz	??_output_ir+1,f
  1426  076E  2F6B               	goto	u287
  1427  076F  0000               	nop
  1428                           
  1429                           ;function_stubs.c: 98: P1MDLBIT = 1;
  1430  0770  003D               	movlb	29	; select bank29
  1431  0771  1692               	bsf	18,5	;volatile
  1432                           
  1433                           ;function_stubs.c: 99: _delay((unsigned long)((535)*(32000000/4000000.0)));
  1434  0772  3006               	movlw	6
  1435  0773  00F2               	movwf	??_output_ir+1
  1436  0774  308D               	movlw	141
  1437  0775  00F1               	movwf	??_output_ir
  1438  0776                     u297:	
  1439  0776  0BF1               	decfsz	??_output_ir,f
  1440  0777  2F76               	goto	u297
  1441  0778  0BF2               	decfsz	??_output_ir+1,f
  1442  0779  2F76               	goto	u297
  1443  077A  3200               	nop2
  1444                           
  1445                           ;function_stubs.c: 100: P1MDLBIT = 0;
  1446  077B  003D               	movlb	29	; select bank29
  1447  077C  1292               	bcf	18,5	;volatile
  1448                           
  1449                           ;function_stubs.c: 101: _delay((unsigned long)((2678-535)*(32000000/4000000.0)));
  1450  077D  3017               	movlw	23
  1451  077E  00F2               	movwf	??_output_ir+1
  1452  077F  3042               	movlw	66
  1453  0780  00F1               	movwf	??_output_ir
  1454  0781                     u307:	
  1455  0781  0BF1               	decfsz	??_output_ir,f
  1456  0782  2F81               	goto	u307
  1457  0783  0BF2               	decfsz	??_output_ir+1,f
  1458  0784  2F81               	goto	u307
  1459  0785  0000               	nop
  1460                           
  1461                           ;function_stubs.c: 104: P1MDLBIT = 1;
  1462  0786  003D               	movlb	29	; select bank29
  1463  0787  1692               	bsf	18,5	;volatile
  1464                           
  1465                           ;function_stubs.c: 105: _delay((unsigned long)((2678)*(32000000/4000000.0)));
  1466  0788  301C               	movlw	28
  1467  0789  00F2               	movwf	??_output_ir+1
  1468  078A  30D1               	movlw	209
  1469  078B  00F1               	movwf	??_output_ir
  1470  078C                     u317:	
  1471  078C  0BF1               	decfsz	??_output_ir,f
  1472  078D  2F8C               	goto	u317
  1473  078E  0BF2               	decfsz	??_output_ir+1,f
  1474  078F  2F8C               	goto	u317
  1475  0790  3200               	nop2
  1476                           
  1477                           ;function_stubs.c: 106: P1MDLBIT = 0;
  1478  0791  003D               	movlb	29	; select bank29
  1479  0792  1292               	bcf	18,5	;volatile
  1480  0793  3001               	movlw	1
  1481  0794  07F5               	addwf	output_ir@i_71,f
  1482  0795  3000               	movlw	0
  1483  0796  3DF6               	addwfc	output_ir@i_71+1,f
  1484  0797  2F3B               	goto	l82
  1485  0798                     l834:	
  1486                           ;function_stubs.c: 107: }
  1487                           ;function_stubs.c: 108: }
  1488                           
  1489                           
  1490                           ;function_stubs.c: 109: else
  1491                           ;function_stubs.c: 110: {
  1492                           ;function_stubs.c: 111: for(int i = 0;i < amount;i++){
  1493  0798  01F7               	clrf	output_ir@i_72
  1494  0799  01F8               	clrf	output_ir@i_72+1
  1495  079A                     l86:	
  1496  079A  0878               	movf	output_ir@i_72+1,w
  1497  079B  3A80               	xorlw	128
  1498  079C  00F1               	movwf	??_output_ir
  1499  079D  3080               	movlw	128
  1500  079E  0271               	subwf	??_output_ir,w
  1501  079F  1D03               	skipz
  1502  07A0  2FA3               	goto	u145
  1503  07A1  0870               	movf	output_ir@amount,w
  1504  07A2  0277               	subwf	output_ir@i_72,w
  1505  07A3                     u145:	
  1506  07A3  1803               	btfsc	3,0
  1507  07A4  0008               	return
  1508                           
  1509                           ;function_stubs.c: 114: P1MDLBIT = 1;
  1510  07A5  003D               	movlb	29	; select bank29
  1511  07A6  1692               	bsf	18,5	;volatile
  1512                           
  1513                           ;function_stubs.c: 115: _delay((unsigned long)((178)*(32000000/4000000.0)));
  1514  07A7  30ED               	movlw	237
  1515  07A8  00F1               	movwf	??_output_ir
  1516  07A9                     u327:	
  1517  07A9  3200               	nop2
  1518  07AA  0000               	nop
  1519  07AB  0BF1               	decfsz	??_output_ir,f
  1520  07AC  2FA9               	goto	u327
  1521  07AD  0000               	nop
  1522                           
  1523                           ;function_stubs.c: 116: P1MDLBIT = 0;
  1524  07AE  003D               	movlb	29	; select bank29
  1525  07AF  1292               	bcf	18,5	;volatile
  1526                           
  1527                           ;function_stubs.c: 117: _delay((unsigned long)((2678-178)*(32000000/4000000.0)));
  1528  07B0  301A               	movlw	26
  1529  07B1  00F2               	movwf	??_output_ir+1
  1530  07B2  30F8               	movlw	248
  1531  07B3  00F1               	movwf	??_output_ir
  1532  07B4                     u337:	
  1533  07B4  0BF1               	decfsz	??_output_ir,f
  1534  07B5  2FB4               	goto	u337
  1535  07B6  0BF2               	decfsz	??_output_ir+1,f
  1536  07B7  2FB4               	goto	u337
  1537  07B8  0000               	nop
  1538                           
  1539                           ;function_stubs.c: 120: P1MDLBIT = 1;
  1540  07B9  003D               	movlb	29	; select bank29
  1541  07BA  1692               	bsf	18,5	;volatile
  1542                           
  1543                           ;function_stubs.c: 121: _delay((unsigned long)((714)*(32000000/4000000.0)));
  1544  07BB  3008               	movlw	8
  1545  07BC  00F2               	movwf	??_output_ir+1
  1546  07BD  3069               	movlw	105
  1547  07BE  00F1               	movwf	??_output_ir
  1548  07BF                     u347:	
  1549  07BF  0BF1               	decfsz	??_output_ir,f
  1550  07C0  2FBF               	goto	u347
  1551  07C1  0BF2               	decfsz	??_output_ir+1,f
  1552  07C2  2FBF               	goto	u347
  1553  07C3  3200               	nop2
  1554                           
  1555                           ;function_stubs.c: 122: P1MDLBIT = 0;
  1556  07C4  003D               	movlb	29	; select bank29
  1557  07C5  1292               	bcf	18,5	;volatile
  1558                           
  1559                           ;function_stubs.c: 123: _delay((unsigned long)((2678-714)*(32000000/4000000.0)));
  1560  07C6  3015               	movlw	21
  1561  07C7  00F2               	movwf	??_output_ir+1
  1562  07C8  3066               	movlw	102
  1563  07C9  00F1               	movwf	??_output_ir
  1564  07CA                     u357:	
  1565  07CA  0BF1               	decfsz	??_output_ir,f
  1566  07CB  2FCA               	goto	u357
  1567  07CC  0BF2               	decfsz	??_output_ir+1,f
  1568  07CD  2FCA               	goto	u357
  1569  07CE  0000               	nop
  1570                           
  1571                           ;function_stubs.c: 124: P1MDLBIT = 1;
  1572  07CF  003D               	movlb	29	; select bank29
  1573  07D0  1692               	bsf	18,5	;volatile
  1574                           
  1575                           ;function_stubs.c: 125: _delay((unsigned long)((714)*(32000000/4000000.0)));
  1576  07D1  3008               	movlw	8
  1577  07D2  00F2               	movwf	??_output_ir+1
  1578  07D3  3069               	movlw	105
  1579  07D4  00F1               	movwf	??_output_ir
  1580  07D5                     u367:	
  1581  07D5  0BF1               	decfsz	??_output_ir,f
  1582  07D6  2FD5               	goto	u367
  1583  07D7  0BF2               	decfsz	??_output_ir+1,f
  1584  07D8  2FD5               	goto	u367
  1585  07D9  3200               	nop2
  1586                           
  1587                           ;function_stubs.c: 126: P1MDLBIT = 0;
  1588  07DA  003D               	movlb	29	; select bank29
  1589  07DB  1292               	bcf	18,5	;volatile
  1590                           
  1591                           ;function_stubs.c: 127: _delay((unsigned long)((2678-714)*(32000000/4000000.0)));
  1592  07DC  3015               	movlw	21
  1593  07DD  00F2               	movwf	??_output_ir+1
  1594  07DE  3066               	movlw	102
  1595  07DF  00F1               	movwf	??_output_ir
  1596  07E0                     u377:	
  1597  07E0  0BF1               	decfsz	??_output_ir,f
  1598  07E1  2FE0               	goto	u377
  1599  07E2  0BF2               	decfsz	??_output_ir+1,f
  1600  07E3  2FE0               	goto	u377
  1601  07E4  0000               	nop
  1602                           
  1603                           ;function_stubs.c: 130: P1MDLBIT = 1;
  1604  07E5  003D               	movlb	29	; select bank29
  1605  07E6  1692               	bsf	18,5	;volatile
  1606                           
  1607                           ;function_stubs.c: 131: _delay((unsigned long)((2678)*(32000000/4000000.0)));
  1608  07E7  301C               	movlw	28
  1609  07E8  00F2               	movwf	??_output_ir+1
  1610  07E9  30D1               	movlw	209
  1611  07EA  00F1               	movwf	??_output_ir
  1612  07EB                     u387:	
  1613  07EB  0BF1               	decfsz	??_output_ir,f
  1614  07EC  2FEB               	goto	u387
  1615  07ED  0BF2               	decfsz	??_output_ir+1,f
  1616  07EE  2FEB               	goto	u387
  1617  07EF  3200               	nop2
  1618                           
  1619                           ;function_stubs.c: 132: P1MDLBIT = 0;
  1620  07F0  003D               	movlb	29	; select bank29
  1621  07F1  1292               	bcf	18,5	;volatile
  1622  07F2  3001               	movlw	1
  1623  07F3  07F7               	addwf	output_ir@i_72,f
  1624  07F4  3000               	movlw	0
  1625  07F5  3DF8               	addwfc	output_ir@i_72+1,f
  1626  07F6  2F9A               	goto	l86
  1627  07F7                     __end_of_output_ir:	
  1628                           
  1629                           	psect	text2
  1630  0653                     __ptext2:	
  1631 ;; *************** function _init_pic *****************
  1632 ;; Defined at:
  1633 ;;		line 38 in file "main.c"
  1634 ;; Parameters:    Size  Location     Type
  1635 ;;		None
  1636 ;; Auto vars:     Size  Location     Type
  1637 ;;		None
  1638 ;; Return value:  Size  Location     Type
  1639 ;;		None               void
  1640 ;; Registers used:
  1641 ;;		wreg, status,2, status,0
  1642 ;; Tracked objects:
  1643 ;;		On entry : 0/0
  1644 ;;		On exit  : 0/0
  1645 ;;		Unchanged: 0/0
  1646 ;; Data sizes:     COMMON   BANK0   BANK1   BANK2   BANK3   BANK4   BANK5   BANK6   BANK7   BANK8   BANK9  BANK10  BANK1
      +1  BANK12  BANK13  BANK14  BANK15  BANK16  BANK17  BANK18  BANK19  BANK20  BANK21  BANK22  BANK23  BANK24  BANK25
  1647 ;;      Params:         0       0       0       0       0       0       0       0       0       0       0       0       
      +0       0       0       0       0       0       0       0       0       0       0       0       0       0       0
  1648 ;;      Locals:         0       0       0       0       0       0       0       0       0       0       0       0       
      +0       0       0       0       0       0       0       0       0       0       0       0       0       0       0
  1649 ;;      Temps:          1       0       0       0       0       0       0       0       0       0       0       0       
      +0       0       0       0       0       0       0       0       0       0       0       0       0       0       0
  1650 ;;      Totals:         1       0       0       0       0       0       0       0       0       0       0       0       
      +0       0       0       0       0       0       0       0       0       0       0       0       0       0       0
  1651 ;;Total ram usage:        1 bytes
  1652 ;; Hardware stack levels used:    1
  1653 ;; This function calls:
  1654 ;;		Nothing
  1655 ;; This function is called by:
  1656 ;;		_main
  1657 ;; This function uses a non-reentrant model
  1658 ;;
  1659                           
  1660                           
  1661                           ;psect for function _init_pic
  1662  0653                     _init_pic:	
  1663                           
  1664                           ;main.c: 40: OSCCON |= 0b11111000;
  1665                           
  1666                           ;incstack = 0
  1667                           ; Regs used in _init_pic: [wreg+status,2+status,0]
  1668  0653  30F8               	movlw	248
  1669  0654  00F0               	movwf	??_init_pic
  1670  0655  0870               	movf	??_init_pic,w
  1671  0656  0021               	movlb	1	; select bank1
  1672  0657  0499               	iorwf	25,f	;volatile
  1673                           
  1674                           ;main.c: 43: TRISCbits.TRISC3 = 0;
  1675  0658  118E               	bcf	14,3	;volatile
  1676                           
  1677                           ;main.c: 46: GIE = 0;
  1678  0659  138B               	bcf	11,7	;volatile
  1679  065A  0008               	return
  1680  065B                     __end_of_init_pic:	
  1681                           
  1682                           	psect	text3
  1683  065B                     __ptext3:	
  1684 ;; *************** function _init_ir *****************
  1685 ;; Defined at:
  1686 ;;		line 10 in file "function_stubs.c"
  1687 ;; Parameters:    Size  Location     Type
  1688 ;;		None
  1689 ;; Auto vars:     Size  Location     Type
  1690 ;;		None
  1691 ;; Return value:  Size  Location     Type
  1692 ;;		None               void
  1693 ;; Registers used:
  1694 ;;		wreg, status,2, status,0
  1695 ;; Tracked objects:
  1696 ;;		On entry : 0/0
  1697 ;;		On exit  : 0/0
  1698 ;;		Unchanged: 0/0
  1699 ;; Data sizes:     COMMON   BANK0   BANK1   BANK2   BANK3   BANK4   BANK5   BANK6   BANK7   BANK8   BANK9  BANK10  BANK1
      +1  BANK12  BANK13  BANK14  BANK15  BANK16  BANK17  BANK18  BANK19  BANK20  BANK21  BANK22  BANK23  BANK24  BANK25
  1700 ;;      Params:         0       0       0       0       0       0       0       0       0       0       0       0       
      +0       0       0       0       0       0       0       0       0       0       0       0       0       0       0
  1701 ;;      Locals:         0       0       0       0       0       0       0       0       0       0       0       0       
      +0       0       0       0       0       0       0       0       0       0       0       0       0       0       0
  1702 ;;      Temps:          1       0       0       0       0       0       0       0       0       0       0       0       
      +0       0       0       0       0       0       0       0       0       0       0       0       0       0       0
  1703 ;;      Totals:         1       0       0       0       0       0       0       0       0       0       0       0       
      +0       0       0       0       0       0       0       0       0       0       0       0       0       0       0
  1704 ;;Total ram usage:        1 bytes
  1705 ;; Hardware stack levels used:    1
  1706 ;; This function calls:
  1707 ;;		Nothing
  1708 ;; This function is called by:
  1709 ;;		_main
  1710 ;; This function uses a non-reentrant model
  1711 ;;
  1712                           
  1713                           
  1714                           ;psect for function _init_ir
  1715  065B                     _init_ir:	
  1716                           
  1717                           ;function_stubs.c: 12: PSMC1CON = 0x00;
  1718                           
  1719                           ;incstack = 0
  1720                           ; Regs used in _init_ir: [wreg+status,2+status,0]
  1721  065B  003D               	movlb	29	; select bank29
  1722  065C  0191               	clrf	17	;volatile
  1723                           
  1724                           ;function_stubs.c: 13: PSMC1MDL = 0x80;
  1725  065D  3080               	movlw	128
  1726  065E  0092               	movwf	18	;volatile
  1727                           
  1728                           ;function_stubs.c: 14: PSMC1SYNC = 0x00;
  1729  065F  0193               	clrf	19	;volatile
  1730                           
  1731                           ;function_stubs.c: 15: PSMC1CLK = 0x00;
  1732  0660  0194               	clrf	20	;volatile
  1733                           
  1734                           ;function_stubs.c: 16: PSMC1POL = 0x00;
  1735  0661  0196               	clrf	22	;volatile
  1736                           
  1737                           ;function_stubs.c: 17: PSMC1BLNK = 0x00;
  1738  0662  0197               	clrf	23	;volatile
  1739                           
  1740                           ;function_stubs.c: 18: PSMC1REBS = 0x00;
  1741  0663  0198               	clrf	24	;volatile
  1742                           
  1743                           ;function_stubs.c: 19: PSMC1FEBS = 0x00;
  1744  0664  0199               	clrf	25	;volatile
  1745                           
  1746                           ;function_stubs.c: 20: PSMC1PHS = 0x01;
  1747  0665  3001               	movlw	1
  1748  0666  009A               	movwf	26	;volatile
  1749                           
  1750                           ;function_stubs.c: 21: PSMC1DCS = 0x01;
  1751  0667  3001               	movlw	1
  1752  0668  009B               	movwf	27	;volatile
  1753                           
  1754                           ;function_stubs.c: 22: PSMC1PRS = 0x01;
  1755  0669  3001               	movlw	1
  1756  066A  009C               	movwf	28	;volatile
  1757                           
  1758                           ;function_stubs.c: 23: PSMC1ASDC = 0x00;
  1759  066B  019D               	clrf	29	;volatile
  1760                           
  1761                           ;function_stubs.c: 24: PSMC1ASDL = 0x08;
  1762  066C  3008               	movlw	8
  1763  066D  009E               	movwf	30	;volatile
  1764                           
  1765                           ;function_stubs.c: 25: PSMC1ASDS = 0x00;
  1766  066E  019F               	clrf	31	;volatile
  1767                           
  1768                           ;function_stubs.c: 26: PSMC1PHH = 0x00;
  1769  066F  01A2               	clrf	34	;volatile
  1770                           
  1771                           ;function_stubs.c: 27: PSMC1PHL = 0x00;
  1772  0670  01A1               	clrf	33	;volatile
  1773                           
  1774                           ;function_stubs.c: 28: PSMC1DCH = 0x01;
  1775  0671  3001               	movlw	1
  1776  0672  00A4               	movwf	36	;volatile
  1777                           
  1778                           ;function_stubs.c: 29: PSMC1DCL = 0x6A;
  1779  0673  306A               	movlw	106
  1780  0674  00A3               	movwf	35	;volatile
  1781                           
  1782                           ;function_stubs.c: 30: PSMC1PRH = 0x02;
  1783  0675  3002               	movlw	2
  1784  0676  00A6               	movwf	38	;volatile
  1785                           
  1786                           ;function_stubs.c: 31: PSMC1PRL = 0x3A;
  1787  0677  303A               	movlw	58
  1788  0678  00A5               	movwf	37	;volatile
  1789                           
  1790                           ;function_stubs.c: 32: PSMC1DBR = 0x00;
  1791  0679  01A9               	clrf	41	;volatile
  1792                           
  1793                           ;function_stubs.c: 33: PSMC1DBF = 0x00;
  1794  067A  01AA               	clrf	42	;volatile
  1795                           
  1796                           ;function_stubs.c: 34: PSMC1FFA = 0x00;
  1797  067B  01AD               	clrf	45	;volatile
  1798                           
  1799                           ;function_stubs.c: 35: PSMC1BLKR = 0x00;
  1800  067C  01AB               	clrf	43	;volatile
  1801                           
  1802                           ;function_stubs.c: 36: PSMC1BLKF = 0x00;
  1803  067D  01AC               	clrf	44	;volatile
  1804                           
  1805                           ;function_stubs.c: 37: PSMC1STR0 = 0x08;
  1806  067E  3008               	movlw	8
  1807  067F  00AE               	movwf	46	;volatile
  1808                           
  1809                           ;function_stubs.c: 38: PSMC1STR1 = 0x00;
  1810  0680  01AF               	clrf	47	;volatile
  1811                           
  1812                           ;function_stubs.c: 39: PSMC1INT = 0x00;
  1813  0681  01A0               	clrf	32	;volatile
  1814                           
  1815                           ;function_stubs.c: 40: PSMC1OEN = 0x08;
  1816  0682  3008               	movlw	8
  1817  0683  0095               	movwf	21	;volatile
  1818                           
  1819                           ;function_stubs.c: 41: PSMC1CON = 0x80;
  1820  0684  3080               	movlw	128
  1821  0685  0091               	movwf	17	;volatile
  1822                           
  1823                           ;function_stubs.c: 42: PIE4 &= 0xEE;
  1824  0686  30EE               	movlw	238
  1825  0687  00F0               	movwf	??_init_ir
  1826  0688  0870               	movf	??_init_ir,w
  1827  0689  0021               	movlb	1	; select bank1
  1828  068A  0594               	andwf	20,f	;volatile
  1829                           
  1830                           ;function_stubs.c: 43: PIE4 |= 0x00;
  1831  068B  0814               	movf	20,w	;volatile
  1832  068C  0008               	return
  1833  068D                     __end_of_init_ir:	
  1834  007E                     btemp	set	126	;btemp
  1835  007E                     wtemp	set	126
  1836  007E                     wtemp0	set	126
  1837  0080                     wtemp1	set	128
  1838  0082                     wtemp2	set	130
  1839  0084                     wtemp3	set	132
  1840  0086                     wtemp4	set	134
  1841  0088                     wtemp5	set	136
  1842  007F                     wtemp6	set	127
  1843  007E                     ttemp	set	126
  1844  007E                     ttemp0	set	126
  1845  0081                     ttemp1	set	129
  1846  0084                     ttemp2	set	132
  1847  0087                     ttemp3	set	135
  1848  007F                     ttemp4	set	127
  1849  007E                     ltemp	set	126
  1850  007E                     ltemp0	set	126
  1851  0082                     ltemp1	set	130
  1852  0086                     ltemp2	set	134
  1853  0080                     ltemp3	set	128


Data Sizes:
    Strings     224
    Constant    0
    Data        1
    BSS         3
    Persistent  0
    Stack       0

Auto Spaces:
    Space          Size  Autos    Used
    COMMON           14     13      14
    BANK0            80      0       3
    BANK1            80      0       0
    BANK2            80      0       0
    BANK3            80      0       0
    BANK4            80      0       0
    BANK5            80      0       0
    BANK6            80      0       0
    BANK7            80      0       0
    BANK8            80      0       0
    BANK9            80      0       0
    BANK10           80      0       0
    BANK11           80      0       0
    BANK12           80      0       0
    BANK13           80      0       0
    BANK14           80      0       0
    BANK15           80      0       0
    BANK16           80      0       0
    BANK17           80      0       0
    BANK18           80      0       0
    BANK19           80      0       0
    BANK20           80      0       0
    BANK21           80      0       0
    BANK22           80      0       0
    BANK23           80      0       0
    BANK24           80      0       0
    BANK25           32      0       0

Pointer List with Targets:

    None.

Critical Paths under _main in COMMON

    _main->_output_ir

Critical Paths under _main in BANK0

    None.

Critical Paths under _main in BANK1

    None.

Critical Paths under _main in BANK2

    None.

Critical Paths under _main in BANK3

    None.

Critical Paths under _main in BANK4

    None.

Critical Paths under _main in BANK5

    None.

Critical Paths under _main in BANK6

    None.

Critical Paths under _main in BANK7

    None.

Critical Paths under _main in BANK8

    None.

Critical Paths under _main in BANK9

    None.

Critical Paths under _main in BANK10

    None.

Critical Paths under _main in BANK11

    None.

Critical Paths under _main in BANK12

    None.

Critical Paths under _main in BANK13

    None.

Critical Paths under _main in BANK14

    None.

Critical Paths under _main in BANK15

    None.

Critical Paths under _main in BANK16

    None.

Critical Paths under _main in BANK17

    None.

Critical Paths under _main in BANK18

    None.

Critical Paths under _main in BANK19

    None.

Critical Paths under _main in BANK20

    None.

Critical Paths under _main in BANK21

    None.

Critical Paths under _main in BANK22

    None.

Critical Paths under _main in BANK23

    None.

Critical Paths under _main in BANK24

    None.

Critical Paths under _main in BANK25

    None.

Call Graph Tables:

 ---------------------------------------------------------------------------------
 (Depth) Function   	        Calls       Base Space   Used Autos Params    Refs
 ---------------------------------------------------------------------------------
 (0) _main                                                 3     3      0     341
                                             10 COMMON     3     3      0
                            _init_ir
                           _init_pic
                          _output_ir
 ---------------------------------------------------------------------------------
 (1) _output_ir                                           10     9      1     341
                                              0 COMMON    10     9      1
 ---------------------------------------------------------------------------------
 (1) _init_pic                                             1     1      0       0
                                              0 COMMON     1     1      0
 ---------------------------------------------------------------------------------
 (1) _init_ir                                              1     1      0       0
                                              0 COMMON     1     1      0
 ---------------------------------------------------------------------------------
 Estimated maximum stack depth 1
 ---------------------------------------------------------------------------------

 Call Graph Graphs:

 _main (ROOT)
   _init_ir
   _init_pic
   _output_ir

 Address spaces:
Name               Size   Autos  Total    Cost      Usage
BIGRAM             7F0      0       0       0        0.0%
EEDATA             100      0       0       0        0.0%
NULL                 0      0       0       0        0.0%
CODE                 0      0       0       0        0.0%
BITCOMMON            E      0       0       1        0.0%
BITSFR0              0      0       0       1        0.0%
SFR0                 0      0       0       1        0.0%
COMMON               E      D       E       2      100.0%
BITSFR1              0      0       0       2        0.0%
SFR1                 0      0       0       2        0.0%
BITSFR2              0      0       0       3        0.0%
SFR2                 0      0       0       3        0.0%
STACK                0      0       0       3        0.0%
BITBANK0            50      0       0       4        0.0%
BITSFR3              0      0       0       4        0.0%
SFR3                 0      0       0       4        0.0%
BANK0               50      0       3       5        3.8%
BITSFR4              0      0       0       5        0.0%
SFR4                 0      0       0       5        0.0%
BITBANK1            50      0       0       6        0.0%
BITSFR5              0      0       0       6        0.0%
SFR5                 0      0       0       6        0.0%
BANK1               50      0       0       7        0.0%
BITSFR6              0      0       0       7        0.0%
SFR6                 0      0       0       7        0.0%
BITBANK2            50      0       0       8        0.0%
BITSFR7              0      0       0       8        0.0%
SFR7                 0      0       0       8        0.0%
BANK2               50      0       0       9        0.0%
BITSFR8              0      0       0       9        0.0%
SFR8                 0      0       0       9        0.0%
BITBANK3            50      0       0      10        0.0%
BITSFR9              0      0       0      10        0.0%
SFR9                 0      0       0      10        0.0%
BANK3               50      0       0      11        0.0%
BITSFR10             0      0       0      11        0.0%
SFR10                0      0       0      11        0.0%
BITBANK4            50      0       0      12        0.0%
BITSFR11             0      0       0      12        0.0%
SFR11                0      0       0      12        0.0%
BANK4               50      0       0      13        0.0%
BITSFR12             0      0       0      13        0.0%
SFR12                0      0       0      13        0.0%
BITSFR13             0      0       0      14        0.0%
SFR13                0      0       0      14        0.0%
ABS                  0      0      11      14        0.0%
BITBANK5            50      0       0      15        0.0%
BITSFR14             0      0       0      15        0.0%
SFR14                0      0       0      15        0.0%
BANK5               50      0       0      16        0.0%
BITSFR15             0      0       0      16        0.0%
SFR15                0      0       0      16        0.0%
BITBANK6            50      0       0      17        0.0%
BITSFR16             0      0       0      17        0.0%
SFR16                0      0       0      17        0.0%
BANK6               50      0       0      18        0.0%
BITSFR17             0      0       0      18        0.0%
SFR17                0      0       0      18        0.0%
BITBANK7            50      0       0      19        0.0%
BITSFR18             0      0       0      19        0.0%
SFR18                0      0       0      19        0.0%
BANK7               50      0       0      20        0.0%
BITSFR19             0      0       0      20        0.0%
SFR19                0      0       0      20        0.0%
BITBANK8            50      0       0      21        0.0%
BITSFR20             0      0       0      21        0.0%
SFR20                0      0       0      21        0.0%
BANK8               50      0       0      22        0.0%
BITSFR21             0      0       0      22        0.0%
SFR21                0      0       0      22        0.0%
BITBANK9            50      0       0      23        0.0%
BITSFR22             0      0       0      23        0.0%
SFR22                0      0       0      23        0.0%
BANK9               50      0       0      24        0.0%
BITSFR23             0      0       0      24        0.0%
SFR23                0      0       0      24        0.0%
BITBANK10           50      0       0      25        0.0%
BITSFR24             0      0       0      25        0.0%
SFR24                0      0       0      25        0.0%
BANK10              50      0       0      26        0.0%
BITSFR25             0      0       0      26        0.0%
SFR25                0      0       0      26        0.0%
BITBANK11           50      0       0      27        0.0%
BITSFR26             0      0       0      27        0.0%
SFR26                0      0       0      27        0.0%
BITSFR27             0      0       0      28        0.0%
SFR27                0      0       0      28        0.0%
DATA                 0      0      11      28        0.0%
BANK11              50      0       0      29        0.0%
BITSFR28             0      0       0      29        0.0%
SFR28                0      0       0      29        0.0%
BITBANK12           50      0       0      30        0.0%
BITSFR29             0      0       0      30        0.0%
SFR29                0      0       0      30        0.0%
BANK12              50      0       0      31        0.0%
BITSFR30             0      0       0      31        0.0%
SFR30                0      0       0      31        0.0%
BITBANK13           50      0       0      32        0.0%
BITSFR31             0      0       0      32        0.0%
SFR31                0      0       0      32        0.0%
BANK13              50      0       0      33        0.0%
BITBANK14           50      0       0      34        0.0%
BANK14              50      0       0      35        0.0%
BITBANK15           50      0       0      36        0.0%
BANK15              50      0       0      37        0.0%
BITBANK16           50      0       0      38        0.0%
BANK16              50      0       0      39        0.0%
BITBANK17           50      0       0      40        0.0%
BANK17              50      0       0      41        0.0%
BITBANK18           50      0       0      42        0.0%
BANK18              50      0       0      43        0.0%
BITBANK19           50      0       0      44        0.0%
BANK19              50      0       0      45        0.0%
BITBANK20           50      0       0      46        0.0%
BANK20              50      0       0      47        0.0%
BITBANK21           50      0       0      48        0.0%
BANK21              50      0       0      49        0.0%
BITBANK22           50      0       0      50        0.0%
BANK22              50      0       0      51        0.0%
BITBANK23           50      0       0      52        0.0%
BANK23              50      0       0      53        0.0%
BITBANK24           50      0       0      54        0.0%
BANK24              50      0       0      55        0.0%
BITBANK25           20      0       0      56        0.0%
BANK25              20      0       0      57        0.0%


Microchip Technology PIC Macro Assembler V1.35 build -356382666 
Symbol Table                                                                                   Fri Oct 23 00:05:47 2015

            __CFG_CP$OFF 0000                       l82 073B                       l77 06D9  
                     l86 079A                      l152 0693                      l814 0736  
                    l834 0798                      _GIE 005F                      u115 06E2  
                    u135 0744                      u207 06FE                      u145 07A3  
                    u217 0709                      u307 0781                      u227 0714  
                    u317 078C                      u237 071F                      u157 06A1  
                    u327 07A9                      u247 072A                      u167 06B6  
                    u337 07B4                      u257 074A                      u177 06CB  
           __CFG_CPD$OFF 0000                      u347 07BF                      u267 0755  
                    u187 06E8                      u357 07CA                      u277 0760  
                    u197 06F3                      u367 07D5                      u287 076B  
                    u377 07E0                      u297 0776                      u387 07EB  
           __CFG_BORV$LO 0000             __CFG_IESO$ON 0000             __CFG_LVP$OFF 0000  
                   STR_1 087B                     STR_2 0859                     STR_3 089C  
                   STR_4 08B9                     STR_5 0800                     STR_6 082F  
                   STR_7 08CD                     _PIE4 0094             __CFG_WRT$OFF 0000  
          __CFG_FCMEN$ON 0000                     _main 068D                     btemp 007E  
                   ltemp 007E                     start 0002                     ttemp 007E  
                   wtemp 007E            __CFG_MCLRE$ON 0000                    ?_main 0070  
          __CFG_WDTE$OFF 0000                    _blade 0020          __end_of_init_ir 068D  
         __CFG_BOREN$OFF 0000                    ltemp0 007E                    ltemp1 0082  
                  ltemp2 0086                    ltemp3 0080                    ttemp0 007E  
                  ttemp1 0081                    ttemp2 0084                    ttemp3 0087  
                  ttemp4 007F                    status 0003                    wtemp0 007E  
                  wtemp1 0080                    wtemp2 0082                    wtemp3 0084  
                  wtemp4 0086                    wtemp5 0088                    wtemp6 007F  
        __initialization 07F7             __end_of_main 06D3           __CFG_LPBOR$OFF 0000  
                 ??_main 007A           __CFG_PLLEN$OFF 0000             _stun_counter 0021  
                 _OSCCON 0099           __CFG_PWRTE$OFF 0000           __CFG_STVREN$ON 0000  
                 _health 0022         __end_of_init_pic 065B                ??_init_ir 0070  
__end_of__initialization 07FD           __pcstackCOMMON 0070             __pidataBANK0 0652  
             __pbssBANK0 0020          __CFG_VCAPEN$OFF 0000               __pmaintext 068D  
     __size_of_output_ir 0124                ?_init_pic 0070                  __ptext1 06D3  
                __ptext2 0653                  __ptext3 065B                  _init_ir 065B  
             _omega_mode 007D     end_of_initialization 07FD               ??_init_pic 0070  
              _PSMC1FEBS 0E99                _PSMC1BLKF 0EAC                _PSMC1ASDC 0E9D  
              _PSMC1BLNK 0E97                _PSMC1BLKR 0EAB                _PSMC1ASDL 0E9E  
              _PSMC1ASDS 0E9F                _PSMC1REBS 0E98                _PSMC1STR0 0EAE  
              _PSMC1STR1 0EAF                _PSMC1SYNC 0E93             __pstringtext 0800  
      __end_of_output_ir 07F7         __CFG_FOSC$INTOSC 0000                _TRISCbits 008E  
    start_initialization 07F7              __pdataBANK0 0022              __pbssCOMMON 007D  
              ___latbits 0003        __size_of_init_pic 0008            output_ir@i_71 0075  
          output_ir@i_72 0077                 ?_init_ir 0070          output_ir@amount 0070  
               _P1MDLBIT 7495                 _PSMC1DBF 0EAA                 _PSMC1DCH 0EA4  
               _PSMC1DCL 0EA3                 _PSMC1FFA 0EAD                 _PSMC1DBR 0EA9  
               _PSMC1DCS 0E9B                 _PSMC1CLK 0E94                 _PSMC1CON 0E91  
               _PSMC1MDL 0E92                 _PSMC1OEN 0E95                 _PSMC1INT 0EA0  
               _PSMC1PHH 0EA2                 _PSMC1PHL 0EA1                 _PSMC1PHS 0E9A  
               _PSMC1POL 0E96                 _PSMC1PRH 0EA6                 _PSMC1PRL 0EA5  
               _PSMC1PRS 0E9C                _output_ir 06D3        output_ir@pkt_type 0079  
             ?_output_ir 0070         __size_of_init_ir 0032               output_ir@i 0073  
          __size_of_main 0046                 _init_pic 0653        __CFG_CLKOUTEN$OFF 0000  
            ??_output_ir 0071  
